; Function Attrs: mustprogress uwtable
define internal void @_ZL35connected_channel_init_channel_elemP20grpc_channel_elementP25grpc_channel_element_args(ptr noalias nocapture writeonly sret(%"class.absl::lts_20230802::Status") align 8 %agg.result, ptr nocapture noundef readonly %elem, ptr noundef %args) #3 personality ptr @__gxx_personality_v0 {
entry:
  %is_last = getelementptr inbounds i8, ptr %args, i64 20
  %0 = load i32, ptr %is_last, align 4
  %tobool.not = icmp eq i32 %0, 0
  br i1 %tobool.not, label %if.then, label %do.end

if.then:                                          ; preds = %entry
  tail call void @gpr_assertion_failed(ptr noundef nonnull @.str, i32 noundef 228, ptr noundef nonnull @.str.15) #25
  unreachable

do.end:                                           ; preds = %entry
  %channel_data = getelementptr inbounds i8, ptr %elem, i64 8
  %1 = load ptr, ptr %channel_data, align 8
  %channel_args = getelementptr inbounds i8, ptr %args, i64 8
  %call.i.i = tail call noundef ptr @_ZNK9grpc_core11ChannelArgs14GetVoidPointerESt17basic_string_viewIcSt11char_traitsIcEE(ptr noundef nonnull align 8 dereferenceable(8) %channel_args, i64 23, ptr nonnull @.str.5)
  store ptr %call.i.i, ptr %1, align 8
  store i64 0, ptr %agg.result, align 8, !alias.scope !7
  ret void
}